; Function Attrs: nounwind uwtable
define dso_local ptr @GetComment(i32 noundef %0, i32 noundef %1, i32 noundef %2) local_unnamed_addr #0 {
  %4 = alloca [3 x %struct.ScanKeyData], align 16
  %5 = alloca i8, align 1
  call void @llvm.lifetime.start.p0(i64 216, ptr nonnull %4) #6
  %6 = zext i32 %0 to i64
  call void @ScanKeyInit(ptr noundef nonnull %4, i16 noundef signext 1, i16 noundef zeroext 3, i32 noundef 184, i64 noundef %6) #6
  %7 = getelementptr inbounds nuw i8, ptr %4, i64 72
  %8 = zext i32 %1 to i64
  call void @ScanKeyInit(ptr noundef nonnull %7, i16 noundef signext 2, i16 noundef zeroext 3, i32 noundef 184, i64 noundef %8) #6
  %9 = getelementptr inbounds nuw i8, ptr %4, i64 144
  %10 = sext i32 %2 to i64
  call void @ScanKeyInit(ptr noundef nonnull %9, i16 noundef signext 3, i16 noundef zeroext 3, i32 noundef 65, i64 noundef %10) #6
  %11 = call ptr @table_open(i32 noundef 2609, i32 noundef 1) #6
  %12 = getelementptr inbounds nuw i8, ptr %11, i64 64
  %13 = load ptr, ptr %12, align 8
  %14 = call ptr @systable_beginscan(ptr noundef %11, i32 noundef 2675, i1 noundef zeroext true, ptr noundef null, i32 noundef 3, ptr noundef nonnull %4) #6
  %15 = call ptr @systable_getnext(ptr noundef %14) #6
  %.not = icmp eq ptr %15, null
  br i1 %.not, label %71, label %16

16:                                               ; preds = %3
  call void @llvm.lifetime.start.p0(i64 1, ptr nonnull %5) #6
  %17 = getelementptr inbounds nuw i8, ptr %15, i64 16
  %18 = load ptr, ptr %17, align 8
  %19 = getelementptr inbounds nuw i8, ptr %18, i64 18
  %20 = load i16, ptr %19, align 2
  %21 = and i16 %20, 2044
  %22 = icmp eq i16 %21, 0
  br i1 %22, label %heap_getattr.exit, label %23

23:                                               ; preds = %16
  store i8 0, ptr %5, align 1
  %24 = getelementptr i8, ptr %18, i64 20
  %.val.val.i.i = load i16, ptr %24, align 4
  %25 = and i16 %.val.val.i.i, 1
  %.not.i.i.i = icmp eq i16 %25, 0
  br i1 %.not.i.i.i, label %26, label %62

26:                                               ; preds = %23
  %27 = getelementptr inbounds nuw i8, ptr %13, i64 72
  %28 = load i32, ptr %27, align 4
  %29 = icmp sgt i32 %28, -1
  br i1 %29, label %30, label %60

30:                                               ; preds = %26
  %31 = getelementptr inbounds nuw i8, ptr %18, i64 22
  %32 = load i8, ptr %31, align 2
  %33 = zext i8 %32 to i64
  %34 = getelementptr inbounds nuw i8, ptr %18, i64 %33
  %35 = zext nneg i32 %28 to i64
  %36 = getelementptr inbounds nuw i8, ptr %34, i64 %35
  %37 = getelementptr inbounds nuw i8, ptr %13, i64 78
  %38 = load i8, ptr %37, align 2, !range !7, !noundef !8
  %39 = trunc nuw i8 %38 to i1
  %40 = getelementptr inbounds nuw i8, ptr %13, i64 76
  %41 = load i16, ptr %40, align 4
  br i1 %39, label %42, label %58

42:                                               ; preds = %30
  switch i16 %41, label %54 [
    i16 1, label %43
    i16 2, label %46
    i16 4, label %49
    i16 8, label %52
  ]

43:                                               ; preds = %42
  %44 = load i8, ptr %36, align 1
  %45 = sext i8 %44 to i64
  br label %heap_getattr.exit.thread

46:                                               ; preds = %42
  %47 = load i16, ptr %36, align 2
  %48 = sext i16 %47 to i64
  br label %heap_getattr.exit.thread

49:                                               ; preds = %42
  %50 = load i32, ptr %36, align 4
  %51 = sext i32 %50 to i64
  br label %heap_getattr.exit.thread

52:                                               ; preds = %42
  %53 = load i64, ptr %36, align 8
  br label %heap_getattr.exit.thread

54:                                               ; preds = %42
  %55 = sext i16 %41 to i32
  %56 = call zeroext i1 @errstart_cold(i32 noundef 21, ptr noundef null) #7
  call void @llvm.assume(i1 %56)
  %57 = call i32 (ptr, ...) @errmsg_internal(ptr noundef nonnull @.str.3, i32 noundef range(i32 -32768, 32768) %55) #6
  call void @errfinish(ptr noundef nonnull @.str.4, i32 noundef 70, ptr noundef nonnull @__func__.fetch_att) #6
  unreachable

58:                                               ; preds = %30
  %59 = ptrtoint ptr %36 to i64
  br label %heap_getattr.exit.thread

60:                                               ; preds = %26
  %61 = call i64 @nocachegetattr(ptr noundef nonnull %15, i32 noundef 4, ptr noundef nonnull %13) #6
  br label %heap_getattr.exit.thread

62:                                               ; preds = %23
  %63 = getelementptr inbounds nuw i8, ptr %18, i64 23
  %.val20.i.i = load i8, ptr %63, align 1
  %64 = and i8 %.val20.i.i, 8
  %.not.i21.i.i = icmp eq i8 %64, 0
  br i1 %.not.i21.i.i, label %heap_getattr.exit.thread14, label %65

65:                                               ; preds = %62
  %66 = call i64 @nocachegetattr(ptr noundef nonnull %15, i32 noundef 4, ptr noundef %13) #6
  br label %heap_getattr.exit.thread

heap_getattr.exit:                                ; preds = %16
  %67 = call i64 @getmissingattr(ptr noundef %13, i32 noundef 4, ptr noundef nonnull %5) #6
  %.pre = load i8, ptr %5, align 1, !range !7
  %68 = trunc nuw i8 %.pre to i1
  br i1 %68, label %heap_getattr.exit.thread14, label %heap_getattr.exit.thread

heap_getattr.exit.thread:                         ; preds = %58, %43, %46, %49, %52, %60, %65, %heap_getattr.exit
  %.0.i13 = phi i64 [ %67, %heap_getattr.exit ], [ %59, %58 ], [ %45, %43 ], [ %48, %46 ], [ %51, %49 ], [ %53, %52 ], [ %61, %60 ], [ %66, %65 ]
  %69 = inttoptr i64 %.0.i13 to ptr
  %70 = call ptr @text_to_cstring(ptr noundef %69) #6
  br label %heap_getattr.exit.thread14

heap_getattr.exit.thread14:                       ; preds = %62, %heap_getattr.exit.thread, %heap_getattr.exit
  %.1 = phi ptr [ null, %heap_getattr.exit ], [ %70, %heap_getattr.exit.thread ], [ null, %62 ]
  call void @llvm.lifetime.end.p0(i64 1, ptr nonnull %5) #6
  br label %71

71:                                               ; preds = %heap_getattr.exit.thread14, %3
  %.0 = phi ptr [ %.1, %heap_getattr.exit.thread14 ], [ null, %3 ]
  call void @systable_endscan(ptr noundef %14) #6
  call void @table_close(ptr noundef nonnull %11, i32 noundef 1) #6
  call void @llvm.lifetime.end.p0(i64 216, ptr nonnull %4) #6
  ret ptr %.0
}